target datalayout = "e-m:e-p270:32:32-p271:32:32-p272:64:64-i64:64-i128:128-f80:128-n8:16:32:64-S128"
target triple = "x86_64-pc-linux-gnu"

%struct.Curl_cftype = type { ptr, i32, i32, ptr, ptr, ptr, ptr, ptr, ptr, ptr, ptr, ptr, ptr, ptr, ptr, ptr }
%struct.Curl_easy = type { i32, i64, i64, ptr, %struct.Curl_llist_node, %struct.Curl_llist_node, i32, i32, %struct.Curl_message, %struct.easy_pollset, %struct.Names, ptr, ptr, ptr, ptr, %struct.SingleRequest, %struct.UserDefined, ptr, ptr, ptr, %struct.Progress, %struct.UrlState, ptr, %struct.PureInfo, %struct.curl_tlssessioninfo }
%struct.Curl_llist_node = type { ptr, ptr, ptr, ptr }
%struct.Curl_message = type { %struct.Curl_llist_node, %struct.CURLMsg }
%struct.CURLMsg = type { i32, ptr, %union.anon }
%union.anon = type { ptr }
%struct.easy_pollset = type { [5 x i32], i32, [5 x i8] }
%struct.Names = type { ptr, i32 }
%struct.SingleRequest = type <{ i64, i64, i64, i64, %struct.curltime, i32, i32, i32, i32, i64, i32, i32, i8, i8, [2 x i8], i32, ptr, ptr, %struct.bufq, i64, i64, ptr, ptr, %union.anon.0, ptr, i8, i32, [3 x i8] }>
%struct.curltime = type { i64, i32 }
%struct.bufq = type { ptr, ptr, ptr, ptr, i64, i64, i64, i32 }
%union.anon.0 = type { ptr }
%struct.UserDefined = type <{ ptr, ptr, ptr, ptr, ptr, ptr, i64, i64, i64, ptr, ptr, i64, ptr, ptr, ptr, ptr, ptr, ptr, ptr, ptr, ptr, ptr, ptr, ptr, ptr, ptr, ptr, ptr, ptr, ptr, ptr, ptr, ptr, ptr, ptr, i64, i64, i64, i64, i64, i64, i64, i64, i64, ptr, ptr, %struct.curl_mimepart, ptr, ptr, ptr, i64, %struct.ssl_config_data, %struct.ssl_config_data, ptr, i16, i8, i8, %struct.ssl_general_config, i32, i32, i32, [4 x i8], ptr, ptr, i64, i32, i8, i8, i8, i8, ptr, ptr, ptr, i32, [4 x i8], [74 x ptr], [8 x ptr], i32, i32, i32, [4 x i8], ptr, i32, [4 x i8], ptr, ptr, ptr, ptr, ptr, i32, i32, i32, i32, i32, i32, i32, i32, i64, ptr, ptr, i64, ptr, i64, ptr, ptr, ptr, ptr, i32, i16, i16, i16, i8, i8, i8, i8, i8, i8, i8, i8, i64, [6 x i8] }>
%struct.curl_mimepart = type { ptr, ptr, i32, i32, ptr, ptr, ptr, ptr, ptr, ptr, ptr, ptr, ptr, ptr, ptr, i64, %struct.mime_state, ptr, %struct.mime_encoder_state, i64 }
%struct.mime_state = type { i32, ptr, i64 }
%struct.mime_encoder_state = type { i64, i64, i64, [256 x i8] }
%struct.ssl_config_data = type { %struct.ssl_primary_config, i64, ptr, ptr, ptr, ptr, ptr, ptr, ptr, i16 }
%struct.ssl_primary_config = type { ptr, ptr, ptr, ptr, ptr, ptr, ptr, ptr, ptr, ptr, ptr, ptr, ptr, ptr, i8, i32, i8, i8 }
%struct.ssl_general_config = type { i32 }
%struct.Progress = type { i64, %struct.pgrs_dir, %struct.pgrs_dir, i64, i64, i32, i32, i64, i64, i64, i64, i64, i64, i64, i64, i64, %struct.curltime, %struct.curltime, %struct.curltime, %struct.curltime, %struct.curltime, [6 x i64], [6 x %struct.curltime], i32, i8 }
%struct.pgrs_dir = type { i64, i64, i64, %struct.pgrs_measure }
%struct.pgrs_measure = type { %struct.curltime, i64 }
%struct.UrlState = type { %struct.curltime, i64, i64, %struct.dynbuf, ptr, i64, ptr, i32, i32, i32, ptr, i32, i64, i32, ptr, %struct.digestdata, %struct.digestdata, %struct.auth, %struct.auth, %struct.Curl_async, ptr, i8, %struct.curltime, %struct.Curl_tree, %struct.Curl_llist, [15 x %struct.time_node], ptr, ptr, i64, i64, i64, i64, [32 x i8], i64, ptr, ptr, ptr, %struct.urlpieces, ptr, ptr, ptr, ptr, ptr, i64, %struct.dynbuf, %struct.Curl_llist, [2 x %struct.curl_header], ptr, i32, ptr, ptr, %struct.store_netrc, %struct.dynamically_allocated_data, i8, i8, i8, i8, i32 }
%struct.digestdata = type { ptr, ptr, ptr, ptr, ptr, ptr, i32, i8, i8 }
%struct.auth = type { i64, i64, i64, i8 }
%struct.Curl_async = type { ptr, ptr, ptr, ptr, i32, i32, i8 }
%struct.Curl_tree = type { ptr, ptr, ptr, ptr, %struct.curltime, ptr }
%struct.time_node = type { %struct.Curl_llist_node, %struct.curltime, i32 }
%struct.urlpieces = type { ptr, ptr, ptr, ptr, ptr, ptr, ptr, ptr }
%struct.dynbuf = type { ptr, i64, i64, i64 }
%struct.Curl_llist = type { ptr, ptr, ptr, i64 }
%struct.curl_header = type { ptr, ptr, i64, i64, i32, ptr }
%struct.store_netrc = type { %struct.dynbuf, ptr, i8 }
%struct.dynamically_allocated_data = type { ptr, ptr, ptr, ptr, ptr, ptr, ptr, ptr, ptr, ptr, ptr, ptr, ptr, ptr }
%struct.PureInfo = type { i32, i32, i32, i64, i64, i64, i64, i64, i64, i64, ptr, ptr, i64, i32, %struct.ip_quadruple, i32, ptr, i32, %struct.curl_certinfo, i32, i8 }
%struct.ip_quadruple = type { [46 x i8], [46 x i8], i32, i32 }
%struct.curl_certinfo = type { i32, ptr }
%struct.curl_tlssessioninfo = type { i32, ptr }
%struct.curl_trc_feat = type { ptr, i32 }
%struct.Curl_cfilter = type { ptr, ptr, ptr, ptr, i32, i8 }
%struct.cf_haproxy_ctx = type { i32, %struct.dynbuf }

@.str.6 = private unnamed_addr constant [6 x i8] c"close\00", align 1

; Function Attrs: nounwind uwtable
define internal void @cf_haproxy_ctx_reset(ptr noundef %0) #0 {
  %2 = alloca ptr, align 8
  store ptr %0, ptr %2, align 8, !tbaa !91
  br label %3

3:                                                ; preds = %1
  br label %4

4:                                                ; preds = %3
  %5 = load ptr, ptr %2, align 8, !tbaa !91
  %6 = getelementptr inbounds nuw %struct.cf_haproxy_ctx, ptr %5, i32 0, i32 0
  store i32 0, ptr %6, align 8, !tbaa !98
  %7 = load ptr, ptr %2, align 8, !tbaa !91
  %8 = getelementptr inbounds nuw %struct.cf_haproxy_ctx, ptr %7, i32 0, i32 1
  call void @Curl_dyn_reset(ptr noundef %8)
  ret void
}

; Function Attrs: nounwind uwtable
define internal void @cf_haproxy_close(ptr noundef %0, ptr noundef %1) #0 {
  %3 = alloca ptr, align 8
  %4 = alloca ptr, align 8
  store ptr %0, ptr %3, align 8, !tbaa !3
  store ptr %1, ptr %4, align 8, !tbaa !8
  br label %5

5:                                                ; preds = %2
  %6 = load ptr, ptr %4, align 8, !tbaa !8
  %7 = icmp ne ptr %6, null
  br i1 %7, label %8, label %44

8:                                                ; preds = %5
  %9 = load ptr, ptr %4, align 8, !tbaa !8
  %10 = getelementptr inbounds nuw %struct.Curl_easy, ptr %9, i32 0, i32 16
  %11 = getelementptr inbounds nuw %struct.UserDefined, ptr %10, i32 0, i32 119
  %12 = load i64, ptr %11, align 2
  %13 = lshr i64 %12, 31
  %14 = and i64 %13, 1
  %15 = trunc i64 %14 to i32
  %16 = icmp ne i32 %15, 0
  br i1 %16, label %17, label %44

17:                                               ; preds = %8
  %18 = load ptr, ptr %4, align 8, !tbaa !8
  %19 = getelementptr inbounds nuw %struct.Curl_easy, ptr %18, i32 0, i32 21
  %20 = getelementptr inbounds nuw %struct.UrlState, ptr %19, i32 0, i32 50
  %21 = load ptr, ptr %20, align 8, !tbaa !10
  %22 = icmp ne ptr %21, null
  br i1 %22, label %23, label %31

23:                                               ; preds = %17
  %24 = load ptr, ptr %4, align 8, !tbaa !8
  %25 = getelementptr inbounds nuw %struct.Curl_easy, ptr %24, i32 0, i32 21
  %26 = getelementptr inbounds nuw %struct.UrlState, ptr %25, i32 0, i32 50
  %27 = load ptr, ptr %26, align 8, !tbaa !10
  %28 = getelementptr inbounds nuw %struct.curl_trc_feat, ptr %27, i32 0, i32 1
  %29 = load i32, ptr %28, align 8, !tbaa !79
  %30 = icmp sge i32 %29, 1
  br i1 %30, label %31, label %44

31:                                               ; preds = %23, %17
  %32 = load ptr, ptr %3, align 8, !tbaa !3
  %33 = icmp ne ptr %32, null
  br i1 %33, label %34, label %44

34:                                               ; preds = %31
  %35 = load ptr, ptr %3, align 8, !tbaa !3
  %36 = getelementptr inbounds nuw %struct.Curl_cfilter, ptr %35, i32 0, i32 0
  %37 = load ptr, ptr %36, align 8, !tbaa !81
  %38 = getelementptr inbounds nuw %struct.Curl_cftype, ptr %37, i32 0, i32 2
  %39 = load i32, ptr %38, align 4, !tbaa !84
  %40 = icmp sge i32 %39, 1
  br i1 %40, label %41, label %44

41:                                               ; preds = %34
  %42 = load ptr, ptr %4, align 8, !tbaa !8
  %43 = load ptr, ptr %3, align 8, !tbaa !3
  call void (ptr, ptr, ptr, ...) @Curl_trc_cf_infof(ptr noundef %42, ptr noundef %43, ptr noundef @.str.6)
  br label %44

44:                                               ; preds = %41, %34, %31, %23, %8, %5
  br label %45

45:                                               ; preds = %44
  %46 = load ptr, ptr %3, align 8, !tbaa !3
  %47 = getelementptr inbounds nuw %struct.Curl_cfilter, ptr %46, i32 0, i32 5
  %48 = load i8, ptr %47, align 4
  %49 = and i8 %48, -2
  %50 = or i8 %49, 0
  store i8 %50, ptr %47, align 4
  %51 = load ptr, ptr %3, align 8, !tbaa !3
  %52 = getelementptr inbounds nuw %struct.Curl_cfilter, ptr %51, i32 0, i32 2
  %53 = load ptr, ptr %52, align 8, !tbaa !86
  call void @cf_haproxy_ctx_reset(ptr noundef %53)
  %54 = load ptr, ptr %3, align 8, !tbaa !3
  %55 = getelementptr inbounds nuw %struct.Curl_cfilter, ptr %54, i32 0, i32 1
  %56 = load ptr, ptr %55, align 8, !tbaa !93
  %57 = icmp ne ptr %56, null
  br i1 %57, label %58, label %70

58:                                               ; preds = %45
  %59 = load ptr, ptr %3, align 8, !tbaa !3
  %60 = getelementptr inbounds nuw %struct.Curl_cfilter, ptr %59, i32 0, i32 1
  %61 = load ptr, ptr %60, align 8, !tbaa !93
  %62 = getelementptr inbounds nuw %struct.Curl_cfilter, ptr %61, i32 0, i32 0
  %63 = load ptr, ptr %62, align 8, !tbaa !81
  %64 = getelementptr inbounds nuw %struct.Curl_cftype, ptr %63, i32 0, i32 5
  %65 = load ptr, ptr %64, align 8, !tbaa !101
  %66 = load ptr, ptr %3, align 8, !tbaa !3
  %67 = getelementptr inbounds nuw %struct.Curl_cfilter, ptr %66, i32 0, i32 1
  %68 = load ptr, ptr %67, align 8, !tbaa !93
  %69 = load ptr, ptr %4, align 8, !tbaa !8
  call void %65(ptr noundef %68, ptr noundef %69)
  br label %70

70:                                               ; preds = %58, %45
  ret void
}